; ModuleID = '44/738.c'
source_filename = "44/738.c"
target datalayout = "e-m:e-p270:32:32-p271:32:32-p272:64:64-i64:64-f80:128-n8:16:32:64-S128"
target triple = "x86_64-pc-linux-gnu"

@.str = private unnamed_addr constant [3 x i8] c"%d\00", align 1
@.str.1 = private unnamed_addr constant [4 x i8] c"%d\0A\00", align 1

; Function Attrs: noinline nounwind uwtable
define dso_local i32 @main() #0 {
  %1 = alloca i32, align 4
  %2 = alloca i32, align 4
  %3 = alloca [6 x i32], align 16
  store i32 0, i32* %1, align 4
  store i32 0, i32* %2, align 4
  br label %4

4:                                                ; preds = %12, %0
  %5 = load i32, i32* %2, align 4
  %6 = icmp slt i32 %5, 6
  br i1 %6, label %7, label %15

7:                                                ; preds = %4
  %8 = load i32, i32* %2, align 4
  %9 = sext i32 %8 to i64
  %10 = getelementptr inbounds [6 x i32], [6 x i32]* %3, i64 0, i64 %9
  %11 = call i32 (i8*, ...) @__isoc99_scanf(i8* getelementptr inbounds ([3 x i8], [3 x i8]* @.str, i64 0, i64 0), i32* %10)
  br label %12

12:                                               ; preds = %7
  %13 = load i32, i32* %2, align 4
  %14 = add nsw i32 %13, 1
  store i32 %14, i32* %2, align 4
  br label %4

15:                                               ; preds = %4
  store i32 0, i32* %2, align 4
  br label %16

16:                                               ; preds = %33, %15
  %17 = load i32, i32* %2, align 4
  %18 = icmp slt i32 %17, 6
  br i1 %18, label %19, label %36

19:                                               ; preds = %16
  %20 = load i32, i32* %2, align 4
  %21 = sext i32 %20 to i64
  %22 = getelementptr inbounds [6 x i32], [6 x i32]* %3, i64 0, i64 %21
  %23 = load i32, i32* %22, align 4
  %24 = call i32 @reverse(i32 %23)
  %25 = load i32, i32* %2, align 4
  %26 = sext i32 %25 to i64
  %27 = getelementptr inbounds [6 x i32], [6 x i32]* %3, i64 0, i64 %26
  store i32 %24, i32* %27, align 4
  %28 = load i32, i32* %2, align 4
  %29 = sext i32 %28 to i64
  %30 = getelementptr inbounds [6 x i32], [6 x i32]* %3, i64 0, i64 %29
  %31 = load i32, i32* %30, align 4
  %32 = call i32 (i8*, ...) @printf(i8* getelementptr inbounds ([4 x i8], [4 x i8]* @.str.1, i64 0, i64 0), i32 %31)
  br label %33

33:                                               ; preds = %19
  %34 = load i32, i32* %2, align 4
  %35 = add nsw i32 %34, 1
  store i32 %35, i32* %2, align 4
  br label %16

36:                                               ; preds = %16
  ret i32 0
}

declare dso_local i32 @__isoc99_scanf(i8*, ...) #1

; Function Attrs: noinline nounwind uwtable
define dso_local i32 @reverse(i32 %0) #0 {
  %2 = alloca i32, align 4
  %3 = alloca i32, align 4
  %4 = alloca i32, align 4
  %5 = alloca i32, align 4
  %6 = alloca i32, align 4
  %7 = alloca [7 x i32], align 16
  %8 = alloca i32, align 4
  store i32 %0, i32* %3, align 4
  store i32 0, i32* %8, align 4
  %9 = load i32, i32* %3, align 4
  %10 = icmp slt i32 %9, 0
  br i1 %10, label %11, label %14

11:                                               ; preds = %1
  store i32 -1, i32* %6, align 4
  %12 = load i32, i32* %3, align 4
  %13 = sub nsw i32 0, %12
  store i32 %13, i32* %3, align 4
  br label %25

14:                                               ; preds = %1
  %15 = load i32, i32* %3, align 4
  %16 = icmp eq i32 %15, 0
  br i1 %16, label %17, label %18

17:                                               ; preds = %14
  store i32 0, i32* %2, align 4
  br label %118

18:                                               ; preds = %14
  %19 = load i32, i32* %3, align 4
  %20 = icmp eq i32 %19, 0
  br i1 %20, label %21, label %22

21:                                               ; preds = %18
  store i32 0, i32* %2, align 4
  br label %118

22:                                               ; preds = %18
  store i32 1, i32* %6, align 4
  br label %23

23:                                               ; preds = %22
  br label %24

24:                                               ; preds = %23
  br label %25

25:                                               ; preds = %24, %11
  store i32 0, i32* %4, align 4
  br label %26

26:                                               ; preds = %71, %25
  %27 = load i32, i32* %4, align 4
  %28 = icmp slt i32 %27, 7
  br i1 %28, label %29, label %74

29:                                               ; preds = %26
  %30 = load i32, i32* %3, align 4
  %31 = sitofp i32 %30 to double
  %32 = load i32, i32* %4, align 4
  %33 = add nsw i32 %32, 1
  %34 = sitofp i32 %33 to double
  %35 = call double @pow(double 1.000000e+01, double %34) #3
  %36 = fdiv double %31, %35
  %37 = fptosi double %36 to i32
  %38 = load i32, i32* %4, align 4
  %39 = sext i32 %38 to i64
  %40 = getelementptr inbounds [7 x i32], [7 x i32]* %7, i64 0, i64 %39
  store i32 %37, i32* %40, align 4
  %41 = load i32, i32* %3, align 4
  %42 = sitofp i32 %41 to double
  %43 = load i32, i32* %4, align 4
  %44 = sext i32 %43 to i64
  %45 = getelementptr inbounds [7 x i32], [7 x i32]* %7, i64 0, i64 %44
  %46 = load i32, i32* %45, align 4
  %47 = sitofp i32 %46 to double
  %48 = load i32, i32* %4, align 4
  %49 = add nsw i32 %48, 1
  %50 = sitofp i32 %49 to double
  %51 = call double @pow(double 1.000000e+01, double %50) #3
  %52 = fmul double %47, %51
  %53 = fsub double %42, %52
  %54 = fptosi double %53 to i32
  %55 = load i32, i32* %4, align 4
  %56 = sext i32 %55 to i64
  %57 = getelementptr inbounds [7 x i32], [7 x i32]* %7, i64 0, i64 %56
  store i32 %54, i32* %57, align 4
  %58 = load i32, i32* %4, align 4
  %59 = sext i32 %58 to i64
  %60 = getelementptr inbounds [7 x i32], [7 x i32]* %7, i64 0, i64 %59
  %61 = load i32, i32* %60, align 4
  %62 = sitofp i32 %61 to double
  %63 = load i32, i32* %4, align 4
  %64 = sitofp i32 %63 to double
  %65 = call double @pow(double 1.000000e+01, double %64) #3
  %66 = fdiv double %62, %65
  %67 = fptosi double %66 to i32
  %68 = load i32, i32* %4, align 4
  %69 = sext i32 %68 to i64
  %70 = getelementptr inbounds [7 x i32], [7 x i32]* %7, i64 0, i64 %69
  store i32 %67, i32* %70, align 4
  br label %71

71:                                               ; preds = %29
  %72 = load i32, i32* %4, align 4
  %73 = add nsw i32 %72, 1
  store i32 %73, i32* %4, align 4
  br label %26

74:                                               ; preds = %26
  store i32 6, i32* %4, align 4
  br label %75

75:                                               ; preds = %82, %74
  %76 = load i32, i32* %4, align 4
  %77 = sext i32 %76 to i64
  %78 = getelementptr inbounds [7 x i32], [7 x i32]* %7, i64 0, i64 %77
  %79 = load i32, i32* %78, align 4
  %80 = icmp eq i32 %79, 0
  br i1 %80, label %81, label %85

81:                                               ; preds = %75
  br label %82

82:                                               ; preds = %81
  %83 = load i32, i32* %4, align 4
  %84 = add nsw i32 %83, -1
  store i32 %84, i32* %4, align 4
  br label %75

85:                                               ; preds = %75
  %86 = load i32, i32* %4, align 4
  store i32 %86, i32* %5, align 4
  store i32 0, i32* %4, align 4
  br label %87

87:                                               ; preds = %107, %85
  %88 = load i32, i32* %4, align 4
  %89 = load i32, i32* %5, align 4
  %90 = icmp sle i32 %88, %89
  br i1 %90, label %91, label %110

91:                                               ; preds = %87
  %92 = load i32, i32* %5, align 4
  %93 = load i32, i32* %4, align 4
  %94 = sub nsw i32 %92, %93
  %95 = sext i32 %94 to i64
  %96 = getelementptr inbounds [7 x i32], [7 x i32]* %7, i64 0, i64 %95
  %97 = load i32, i32* %96, align 4
  %98 = sitofp i32 %97 to double
  %99 = load i32, i32* %4, align 4
  %100 = sitofp i32 %99 to double
  %101 = call double @pow(double 1.000000e+01, double %100) #3
  %102 = fmul double %98, %101
  %103 = load i32, i32* %8, align 4
  %104 = sitofp i32 %103 to double
  %105 = fadd double %104, %102
  %106 = fptosi double %105 to i32
  store i32 %106, i32* %8, align 4
  br label %107

107:                                              ; preds = %91
  %108 = load i32, i32* %4, align 4
  %109 = add nsw i32 %108, 1
  store i32 %109, i32* %4, align 4
  br label %87

110:                                              ; preds = %87
  %111 = load i32, i32* %6, align 4
  %112 = icmp eq i32 %111, -1
  br i1 %112, label %113, label %116

113:                                              ; preds = %110
  %114 = load i32, i32* %8, align 4
  %115 = sub nsw i32 0, %114
  store i32 %115, i32* %8, align 4
  br label %116

116:                                              ; preds = %113, %110
  %117 = load i32, i32* %8, align 4
  store i32 %117, i32* %2, align 4
  br label %118

118:                                              ; preds = %116, %21, %17
  %119 = load i32, i32* %2, align 4
  ret i32 %119
}

declare dso_local i32 @printf(i8*, ...) #1

; Function Attrs: nounwind
declare dso_local double @pow(double, double) #2


!llvm.module.flags = !{!0}
!llvm.ident = !{!1}

!0 = !{i32 1, !"wchar_size", i32 4}
!1 = !{!"clang version 10.0.0-4ubuntu1 "}
